target datalayout = "e-m:e-p270:32:32-p271:32:32-p272:64:64-i64:64-i128:128-f80:128-n8:16:32:64-S128"
target triple = "x86_64-pc-linux-gnu"

%struct.pack_list = type { ptr, ptr, ptr, ptr, i64 }
%struct.llist = type { ptr, ptr, i64 }

; Function Attrs: nounwind uwtable
define internal i32 @cmp_remaining_objects(ptr noundef %0, ptr noundef %1) #0 {
  %3 = alloca i32, align 4
  %4 = alloca ptr, align 8
  %5 = alloca ptr, align 8
  %6 = alloca ptr, align 8
  %7 = alloca ptr, align 8
  %8 = alloca i32, align 4
  store ptr %0, ptr %4, align 8, !tbaa !76
  store ptr %1, ptr %5, align 8, !tbaa !76
  call void @llvm.lifetime.start.p0(i64 8, ptr %6) #9
  %9 = load ptr, ptr %4, align 8, !tbaa !76
  %10 = load ptr, ptr %9, align 8, !tbaa !15
  store ptr %10, ptr %6, align 8, !tbaa !15
  call void @llvm.lifetime.start.p0(i64 8, ptr %7) #9
  %11 = load ptr, ptr %5, align 8, !tbaa !76
  %12 = load ptr, ptr %11, align 8, !tbaa !15
  store ptr %12, ptr %7, align 8, !tbaa !15
  %13 = load ptr, ptr %6, align 8, !tbaa !15
  %14 = getelementptr inbounds nuw %struct.pack_list, ptr %13, i32 0, i32 3
  %15 = load ptr, ptr %14, align 8, !tbaa !26
  %16 = getelementptr inbounds nuw %struct.llist, ptr %15, i32 0, i32 2
  %17 = load i64, ptr %16, align 8, !tbaa !34
  %18 = load ptr, ptr %7, align 8, !tbaa !15
  %19 = getelementptr inbounds nuw %struct.pack_list, ptr %18, i32 0, i32 3
  %20 = load ptr, ptr %19, align 8, !tbaa !26
  %21 = getelementptr inbounds nuw %struct.llist, ptr %20, i32 0, i32 2
  %22 = load i64, ptr %21, align 8, !tbaa !34
  %23 = icmp eq i64 %17, %22
  br i1 %23, label %24, label %43

24:                                               ; preds = %2
  %25 = load ptr, ptr %6, align 8, !tbaa !15
  %26 = getelementptr inbounds nuw %struct.pack_list, ptr %25, i32 0, i32 4
  %27 = load i64, ptr %26, align 8, !tbaa !98
  %28 = load ptr, ptr %7, align 8, !tbaa !15
  %29 = getelementptr inbounds nuw %struct.pack_list, ptr %28, i32 0, i32 4
  %30 = load i64, ptr %29, align 8, !tbaa !98
  %31 = icmp eq i64 %27, %30
  br i1 %31, label %32, label %33

32:                                               ; preds = %24
  store i32 0, ptr %3, align 4
  store i32 1, ptr %8, align 4
  br label %57

33:                                               ; preds = %24
  %34 = load ptr, ptr %6, align 8, !tbaa !15
  %35 = getelementptr inbounds nuw %struct.pack_list, ptr %34, i32 0, i32 4
  %36 = load i64, ptr %35, align 8, !tbaa !98
  %37 = load ptr, ptr %7, align 8, !tbaa !15
  %38 = getelementptr inbounds nuw %struct.pack_list, ptr %37, i32 0, i32 4
  %39 = load i64, ptr %38, align 8, !tbaa !98
  %40 = icmp ult i64 %36, %39
  br i1 %40, label %41, label %42

41:                                               ; preds = %33
  store i32 1, ptr %3, align 4
  store i32 1, ptr %8, align 4
  br label %57

42:                                               ; preds = %33
  store i32 -1, ptr %3, align 4
  store i32 1, ptr %8, align 4
  br label %57

43:                                               ; preds = %2
  %44 = load ptr, ptr %6, align 8, !tbaa !15
  %45 = getelementptr inbounds nuw %struct.pack_list, ptr %44, i32 0, i32 3
  %46 = load ptr, ptr %45, align 8, !tbaa !26
  %47 = getelementptr inbounds nuw %struct.llist, ptr %46, i32 0, i32 2
  %48 = load i64, ptr %47, align 8, !tbaa !34
  %49 = load ptr, ptr %7, align 8, !tbaa !15
  %50 = getelementptr inbounds nuw %struct.pack_list, ptr %49, i32 0, i32 3
  %51 = load ptr, ptr %50, align 8, !tbaa !26
  %52 = getelementptr inbounds nuw %struct.llist, ptr %51, i32 0, i32 2
  %53 = load i64, ptr %52, align 8, !tbaa !34
  %54 = icmp ult i64 %48, %53
  br i1 %54, label %55, label %56

55:                                               ; preds = %43
  store i32 1, ptr %3, align 4
  store i32 1, ptr %8, align 4
  br label %57

56:                                               ; preds = %43
  store i32 -1, ptr %3, align 4
  store i32 1, ptr %8, align 4
  br label %57

57:                                               ; preds = %56, %55, %42, %41, %32
  call void @llvm.lifetime.end.p0(i64 8, ptr %7) #9
  call void @llvm.lifetime.end.p0(i64 8, ptr %6) #9
  %58 = load i32, ptr %3, align 4
  ret i32 %58
}