; Function Attrs: mustprogress nofree norecurse nosync nounwind willreturn memory(read, inaccessiblemem: none) uwtable
define internal range(i32 -1, 2) i32 @cmp_remaining_objects(ptr noundef readonly captures(none) %0, ptr noundef readonly captures(none) %1) #11 {
  %3 = load ptr, ptr %0, align 8, !tbaa !20
  %4 = load ptr, ptr %1, align 8, !tbaa !20
  %5 = getelementptr inbounds nuw i8, ptr %3, i64 24
  %6 = load ptr, ptr %5, align 8, !tbaa !24
  %7 = getelementptr inbounds nuw i8, ptr %6, i64 16
  %8 = load i64, ptr %7, align 8, !tbaa !60
  %9 = getelementptr inbounds nuw i8, ptr %4, i64 24
  %10 = load ptr, ptr %9, align 8, !tbaa !24
  %11 = getelementptr inbounds nuw i8, ptr %10, i64 16
  %12 = load i64, ptr %11, align 8, !tbaa !60
  %13 = icmp eq i64 %8, %12
  br i1 %13, label %14, label %22

14:                                               ; preds = %2
  %15 = getelementptr inbounds nuw i8, ptr %3, i64 32
  %16 = load i64, ptr %15, align 8, !tbaa !99
  %17 = getelementptr inbounds nuw i8, ptr %4, i64 32
  %18 = load i64, ptr %17, align 8, !tbaa !99
  %19 = icmp eq i64 %16, %18
  br i1 %19, label %24, label %20

20:                                               ; preds = %14
  %21 = icmp ult i64 %16, %18
  %. = select i1 %21, i32 1, i32 -1
  br label %24

22:                                               ; preds = %2
  %23 = icmp ult i64 %8, %12
  %.14 = select i1 %23, i32 1, i32 -1
  br label %24

24:                                               ; preds = %22, %20, %14
  %.0 = phi i32 [ 0, %14 ], [ %., %20 ], [ %.14, %22 ]
  ret i32 %.0
}